; Function Attrs: mustprogress uwtable
define void @_ZN9benchmark5State8SetLabelERKNSt7__cxx1112basic_stringIcSt11char_traitsIcESaIcEEE(ptr noundef nonnull readonly align 64 captures(none) dereferenceable(184) %0, ptr noundef nonnull align 8 dereferenceable(32) %1) local_unnamed_addr #0 align 2 personality ptr @__gxx_personality_v0 {
  %3 = getelementptr inbounds nuw i8, ptr %0, i64 160
  %4 = load ptr, ptr %3, align 32, !tbaa !56
  %5 = getelementptr inbounds nuw i8, ptr %4, i64 160
  %6 = tail call noundef i32 @pthread_mutex_lock(ptr noundef nonnull align 8 dereferenceable(40) %5) #32
  %.not.i.i.i.i = icmp eq i32 %6, 0
  br i1 %.not.i.i.i.i, label %_ZN9benchmark9MutexLockC2ERNS_5MutexE.exit, label %7

7:                                                ; preds = %2
  tail call void @_ZSt20__throw_system_errori(i32 noundef %6) #34
  unreachable

_ZN9benchmark9MutexLockC2ERNS_5MutexE.exit:       ; preds = %2
  %8 = load ptr, ptr %3, align 32, !tbaa !56
  %9 = getelementptr inbounds nuw i8, ptr %8, i64 40
  invoke void @_ZNSt7__cxx1112basic_stringIcSt11char_traitsIcESaIcEE9_M_assignERKS4_(ptr noundef nonnull align 8 dereferenceable(32) %9, ptr noundef nonnull align 8 dereferenceable(32) %1)
          to label %_ZN9benchmark9MutexLockD2Ev.exit unwind label %_ZN9benchmark9MutexLockD2Ev.exit4

_ZN9benchmark9MutexLockD2Ev.exit:                 ; preds = %_ZN9benchmark9MutexLockC2ERNS_5MutexE.exit
  %10 = tail call noundef i32 @pthread_mutex_unlock(ptr noundef nonnull align 8 dereferenceable(40) %5) #32
  ret void

_ZN9benchmark9MutexLockD2Ev.exit4:                ; preds = %_ZN9benchmark9MutexLockC2ERNS_5MutexE.exit
  %11 = landingpad { ptr, i32 }
          cleanup
  %12 = tail call noundef i32 @pthread_mutex_unlock(ptr noundef nonnull align 8 dereferenceable(40) %5) #32
  resume { ptr, i32 } %11
}